target datalayout = "e-m:e-p270:32:32-p271:32:32-p272:64:64-i64:64-i128:128-f80:128-n8:16:32:64-S128"
target triple = "x86_64-pc-linux-gnu"

%struct.timeval = type { i64, i64 }
%union.pthread_mutex_t = type { %struct.__pthread_mutex_s }
%struct.__pthread_mutex_s = type { i32, i32, i32, i32, i32, i16, i16, %struct.__pthread_internal_list }
%struct.__pthread_internal_list = type { ptr, ptr }
%struct.event = type { %struct.event_callback, %union.anon.1, i32, ptr, %union.anon.3, i16, i16, %struct.timeval }
%struct.event_callback = type { %struct.anon.0, i16, i8, i8, %union.anon, ptr }
%struct.anon.0 = type { ptr, ptr }
%union.anon = type { ptr }
%union.anon.1 = type { %struct.anon.2 }
%struct.anon.2 = type { ptr, ptr }
%union.anon.3 = type { %struct.anon.4 }
%struct.anon.4 = type { %struct.anon.5, %struct.timeval }
%struct.anon.5 = type { ptr, ptr }
%struct.LIBEVENT_THREAD = type { i64, ptr, %struct.thread_notify, %struct.thread_notify, %union.pthread_mutex_t, %struct.iop_head_s, i32, i32, i32, %struct.thread_stats, [3 x %struct.io_queue_s], ptr, ptr, ptr, ptr, ptr, ptr, ptr, i32 }
%struct.thread_notify = type { %struct.event, i32 }
%struct.iop_head_s = type { ptr, ptr }
%struct.thread_stats = type { %union.pthread_mutex_t, i64, i64, i64, i64, i64, i64, i64, i64, i64, i64, i64, i64, i64, i64, i64, i64, i64, i64, i64, i64, i64, i64, i64, i64, i64, i64, i64, i64, i64, i64, [64 x %struct.slab_stats], [256 x i64], i64, i64, i64 }
%struct.slab_stats = type { i64, i64, i64, i64, i64, i64, i64, i64 }
%struct.io_queue_s = type { ptr, %struct.iop_head_s, ptr, i32 }

; Function Attrs: nounwind uwtable
define dso_local void @thread_io_queue_add(ptr noundef %0, i32 noundef %1, ptr noundef %2, ptr noundef %3) #0 {
  %5 = alloca ptr, align 8
  %6 = alloca i32, align 4
  %7 = alloca ptr, align 8
  %8 = alloca ptr, align 8
  %9 = alloca ptr, align 8
  store ptr %0, ptr %5, align 8, !tbaa !68
  store i32 %1, ptr %6, align 4, !tbaa !8
  store ptr %2, ptr %7, align 8, !tbaa !68
  store ptr %3, ptr %8, align 8, !tbaa !68
  call void @llvm.lifetime.start.p0(i64 8, ptr %9) #15
  %10 = load ptr, ptr %5, align 8, !tbaa !68
  %11 = getelementptr inbounds nuw %struct.LIBEVENT_THREAD, ptr %10, i32 0, i32 10
  %12 = getelementptr inbounds [3 x %struct.io_queue_s], ptr %11, i64 0, i64 0
  store ptr %12, ptr %9, align 8, !tbaa !91
  br label %13

13:                                               ; preds = %18, %4
  %14 = load ptr, ptr %9, align 8, !tbaa !91
  %15 = getelementptr inbounds nuw %struct.io_queue_s, ptr %14, i32 0, i32 3
  %16 = load i32, ptr %15, align 8, !tbaa !93
  %17 = icmp ne i32 %16, 0
  br i1 %17, label %18, label %21

18:                                               ; preds = %13
  %19 = load ptr, ptr %9, align 8, !tbaa !91
  %20 = getelementptr inbounds nuw %struct.io_queue_s, ptr %19, i32 1
  store ptr %20, ptr %9, align 8, !tbaa !91
  br label %13, !llvm.loop !95

21:                                               ; preds = %13
  %22 = load i32, ptr %6, align 4, !tbaa !8
  %23 = load ptr, ptr %9, align 8, !tbaa !91
  %24 = getelementptr inbounds nuw %struct.io_queue_s, ptr %23, i32 0, i32 3
  store i32 %22, ptr %24, align 8, !tbaa !93
  %25 = load ptr, ptr %7, align 8, !tbaa !68
  %26 = load ptr, ptr %9, align 8, !tbaa !91
  %27 = getelementptr inbounds nuw %struct.io_queue_s, ptr %26, i32 0, i32 0
  store ptr %25, ptr %27, align 8, !tbaa !96
  %28 = load ptr, ptr %8, align 8, !tbaa !68
  %29 = load ptr, ptr %9, align 8, !tbaa !91
  %30 = getelementptr inbounds nuw %struct.io_queue_s, ptr %29, i32 0, i32 2
  store ptr %28, ptr %30, align 8, !tbaa !97
  br label %31

31:                                               ; preds = %21
  %32 = load ptr, ptr %9, align 8, !tbaa !91
  %33 = getelementptr inbounds nuw %struct.io_queue_s, ptr %32, i32 0, i32 1
  %34 = getelementptr inbounds nuw %struct.iop_head_s, ptr %33, i32 0, i32 0
  store ptr null, ptr %34, align 8, !tbaa !98
  %35 = load ptr, ptr %9, align 8, !tbaa !91
  %36 = getelementptr inbounds nuw %struct.io_queue_s, ptr %35, i32 0, i32 1
  %37 = getelementptr inbounds nuw %struct.iop_head_s, ptr %36, i32 0, i32 0
  %38 = load ptr, ptr %9, align 8, !tbaa !91
  %39 = getelementptr inbounds nuw %struct.io_queue_s, ptr %38, i32 0, i32 1
  %40 = getelementptr inbounds nuw %struct.iop_head_s, ptr %39, i32 0, i32 1
  store ptr %37, ptr %40, align 8, !tbaa !99
  br label %41

41:                                               ; preds = %31
  br label %42

42:                                               ; preds = %41
  call void @llvm.lifetime.end.p0(i64 8, ptr %9) #15
  ret void
}