; Function Attrs: nofree norecurse nosync nounwind memory(argmem: readwrite) uwtable
define dso_local void @thread_io_queue_add(ptr noundef %0, i32 noundef %1, ptr noundef %2, ptr noundef %3) local_unnamed_addr #10 {
  %5 = getelementptr inbounds nuw i8, ptr %0, i64 6808
  br label %6

6:                                                ; preds = %6, %4
  %.0 = phi ptr [ %5, %4 ], [ %9, %6 ]
  %7 = getelementptr inbounds nuw i8, ptr %.0, i64 32
  %8 = load i32, ptr %7, align 8, !tbaa !96
  %.not = icmp eq i32 %8, 0
  %9 = getelementptr inbounds nuw i8, ptr %.0, i64 40
  br i1 %.not, label %10, label %6, !llvm.loop !132

10:                                               ; preds = %6
  %11 = getelementptr inbounds nuw i8, ptr %.0, i64 32
  store i32 %1, ptr %11, align 8, !tbaa !96
  store ptr %2, ptr %.0, align 8, !tbaa !133
  %12 = getelementptr inbounds nuw i8, ptr %.0, i64 24
  store ptr %3, ptr %12, align 8, !tbaa !99
  %13 = getelementptr inbounds nuw i8, ptr %.0, i64 8
  store ptr null, ptr %13, align 8, !tbaa !98
  %14 = getelementptr inbounds nuw i8, ptr %.0, i64 16
  store ptr %13, ptr %14, align 8, !tbaa !134
  ret void
}